; ModuleID = '45/428.c'
source_filename = "45/428.c"
target datalayout = "e-m:e-p270:32:32-p271:32:32-p272:64:64-i64:64-f80:128-n8:16:32:64-S128"
target triple = "x86_64-pc-linux-gnu"

@.str = private unnamed_addr constant [6 x i8] c"%s %s\00", align 1
@.str.1 = private unnamed_addr constant [4 x i8] c"%d\0A\00", align 1

; Function Attrs: noinline nounwind uwtable
define dso_local i32 @main() #0 {
  %1 = alloca i32, align 4
  %2 = alloca [50 x i8], align 16
  %3 = alloca [50 x i8], align 16
  %4 = alloca [50 x [50 x i8]], align 16
  %5 = alloca [50 x i8]*, align 8
  %6 = alloca i8*, align 8
  %7 = alloca i8*, align 8
  %8 = alloca i32, align 4
  %9 = alloca i32, align 4
  %10 = alloca i32, align 4
  %11 = alloca i32, align 4
  %12 = alloca i32, align 4
  %13 = alloca i32, align 4
  %14 = alloca [50 x i32], align 16
  %15 = alloca i32*, align 8
  store i32 0, i32* %1, align 4
  store i32 -1, i32* %9, align 4
  %16 = bitcast [50 x i32]* %14 to i8*
  call void @llvm.memset.p0i8.i64(i8* align 16 %16, i8 0, i64 200, i1 false)
  %17 = getelementptr inbounds [50 x i8], [50 x i8]* %2, i64 0, i64 0
  %18 = getelementptr inbounds [50 x i8], [50 x i8]* %3, i64 0, i64 0
  %19 = call i32 (i8*, ...) @__isoc99_scanf(i8* getelementptr inbounds ([6 x i8], [6 x i8]* @.str, i64 0, i64 0), i8* %17, i8* %18)
  %20 = getelementptr inbounds [50 x i8], [50 x i8]* %2, i64 0, i64 0
  %21 = call i64 @strlen(i8* %20) #4
  %22 = trunc i64 %21 to i32
  store i32 %22, i32* %11, align 4
  %23 = getelementptr inbounds [50 x i8], [50 x i8]* %3, i64 0, i64 0
  %24 = call i64 @strlen(i8* %23) #4
  %25 = trunc i64 %24 to i32
  store i32 %25, i32* %12, align 4
  %26 = getelementptr inbounds [50 x [50 x i8]], [50 x [50 x i8]]* %4, i64 0, i64 0
  store [50 x i8]* %26, [50 x i8]** %5, align 8
  %27 = getelementptr inbounds [50 x i8], [50 x i8]* %2, i64 0, i64 0
  store i8* %27, i8** %6, align 8
  %28 = getelementptr inbounds [50 x i8], [50 x i8]* %3, i64 0, i64 0
  store i8* %28, i8** %7, align 8
  %29 = getelementptr inbounds [50 x i32], [50 x i32]* %14, i64 0, i64 0
  store i32* %29, i32** %15, align 8
  store i32 0, i32* %8, align 4
  br label %30

30:                                               ; preds = %94, %0
  %31 = load i32, i32* %8, align 4
  %32 = load i32, i32* %12, align 4
  %33 = icmp slt i32 %31, %32
  br i1 %33, label %34, label %97

34:                                               ; preds = %30
  %35 = load i8*, i8** %7, align 8
  %36 = load i32, i32* %8, align 4
  %37 = sext i32 %36 to i64
  %38 = getelementptr inbounds i8, i8* %35, i64 %37
  %39 = load i8, i8* %38, align 1
  %40 = sext i8 %39 to i32
  %41 = load i8*, i8** %6, align 8
  %42 = load i8, i8* %41, align 1
  %43 = sext i8 %42 to i32
  %44 = icmp eq i32 %40, %43
  br i1 %44, label %45, label %93

45:                                               ; preds = %34
  %46 = load i32, i32* %8, align 4
  %47 = load i32, i32* %12, align 4
  %48 = load i32, i32* %11, align 4
  %49 = sub nsw i32 %47, %48
  %50 = icmp sle i32 %46, %49
  br i1 %50, label %51, label %92

51:                                               ; preds = %45
  %52 = load i32, i32* %9, align 4
  %53 = add nsw i32 %52, 1
  store i32 %53, i32* %9, align 4
  store i32 0, i32* %10, align 4
  br label %54

54:                                               ; preds = %75, %51
  %55 = load i32, i32* %10, align 4
  %56 = load i32, i32* %11, align 4
  %57 = icmp slt i32 %55, %56
  br i1 %57, label %58, label %78

58:                                               ; preds = %54
  %59 = load i8*, i8** %7, align 8
  %60 = load i32, i32* %10, align 4
  %61 = sext i32 %60 to i64
  %62 = getelementptr inbounds i8, i8* %59, i64 %61
  %63 = load i32, i32* %8, align 4
  %64 = sext i32 %63 to i64
  %65 = getelementptr inbounds i8, i8* %62, i64 %64
  %66 = load i8, i8* %65, align 1
  %67 = load [50 x i8]*, [50 x i8]** %5, align 8
  %68 = load i32, i32* %9, align 4
  %69 = sext i32 %68 to i64
  %70 = getelementptr inbounds [50 x i8], [50 x i8]* %67, i64 %69
  %71 = getelementptr inbounds [50 x i8], [50 x i8]* %70, i64 0, i64 0
  %72 = load i32, i32* %10, align 4
  %73 = sext i32 %72 to i64
  %74 = getelementptr inbounds i8, i8* %71, i64 %73
  store i8 %66, i8* %74, align 1
  br label %75

75:                                               ; preds = %58
  %76 = load i32, i32* %10, align 4
  %77 = add nsw i32 %76, 1
  store i32 %77, i32* %10, align 4
  br label %54

78:                                               ; preds = %54
  %79 = load [50 x i8]*, [50 x i8]** %5, align 8
  %80 = load i32, i32* %9, align 4
  %81 = sext i32 %80 to i64
  %82 = getelementptr inbounds [50 x i8], [50 x i8]* %79, i64 %81
  %83 = getelementptr inbounds [50 x i8], [50 x i8]* %82, i64 0, i64 0
  %84 = load i32, i32* %10, align 4
  %85 = sext i32 %84 to i64
  %86 = getelementptr inbounds i8, i8* %83, i64 %85
  store i8 0, i8* %86, align 1
  %87 = load i32, i32* %8, align 4
  %88 = load i32*, i32** %15, align 8
  %89 = load i32, i32* %9, align 4
  %90 = sext i32 %89 to i64
  %91 = getelementptr inbounds i32, i32* %88, i64 %90
  store i32 %87, i32* %91, align 4
  br label %92

92:                                               ; preds = %78, %45
  br label %93

93:                                               ; preds = %92, %34
  br label %94

94:                                               ; preds = %93
  %95 = load i32, i32* %8, align 4
  %96 = add nsw i32 %95, 1
  store i32 %96, i32* %8, align 4
  br label %30

97:                                               ; preds = %30
  %98 = load i32, i32* %9, align 4
  %99 = add nsw i32 %98, 1
  store i32 %99, i32* %13, align 4
  store i32 0, i32* %8, align 4
  br label %100

100:                                              ; preds = %121, %97
  %101 = load i32, i32* %8, align 4
  %102 = load i32, i32* %13, align 4
  %103 = icmp slt i32 %101, %102
  br i1 %103, label %104, label %124

104:                                              ; preds = %100
  %105 = getelementptr inbounds [50 x i8], [50 x i8]* %2, i64 0, i64 0
  %106 = load [50 x i8]*, [50 x i8]** %5, align 8
  %107 = load i32, i32* %8, align 4
  %108 = sext i32 %107 to i64
  %109 = getelementptr inbounds [50 x i8], [50 x i8]* %106, i64 %108
  %110 = getelementptr inbounds [50 x i8], [50 x i8]* %109, i64 0, i64 0
  %111 = call i32 @strcmp(i8* %105, i8* %110) #4
  %112 = icmp eq i32 %111, 0
  br i1 %112, label %113, label %120

113:                                              ; preds = %104
  %114 = load i32*, i32** %15, align 8
  %115 = load i32, i32* %8, align 4
  %116 = sext i32 %115 to i64
  %117 = getelementptr inbounds i32, i32* %114, i64 %116
  %118 = load i32, i32* %117, align 4
  %119 = call i32 (i8*, ...) @printf(i8* getelementptr inbounds ([4 x i8], [4 x i8]* @.str.1, i64 0, i64 0), i32 %118)
  br label %120

120:                                              ; preds = %113, %104
  br label %124

121:                                              ; No predecessors!
  %122 = load i32, i32* %8, align 4
  %123 = add nsw i32 %122, 1
  store i32 %123, i32* %8, align 4
  br label %100

124:                                              ; preds = %120, %100
  %125 = load i32, i32* %1, align 4
  ret i32 %125
}

; Function Attrs: argmemonly nounwind willreturn
declare void @llvm.memset.p0i8.i64(i8* nocapture writeonly, i8, i64, i1 immarg) #1

declare dso_local i32 @__isoc99_scanf(i8*, ...) #2

; Function Attrs: nounwind readonly
declare dso_local i64 @strlen(i8*) #3

; Function Attrs: nounwind readonly
declare dso_local i32 @strcmp(i8*, i8*) #3

declare dso_local i32 @printf(i8*, ...) #2


!llvm.module.flags = !{!0}
!llvm.ident = !{!1}

!0 = !{i32 1, !"wchar_size", i32 4}
!1 = !{!"clang version 10.0.0-4ubuntu1 "}
